target datalayout = "e-m:e-p270:32:32-p271:32:32-p272:64:64-i64:64-i128:128-f80:128-n8:16:32:64-S128"
target triple = "x86_64-pc-linux-gnu"

%union.pthread_mutex_t = type { %struct.__pthread_mutex_s }
%struct.__pthread_mutex_s = type { i32, i32, i32, i32, i32, i16, i16, %struct.__pthread_internal_list }
%struct.__pthread_internal_list = type { ptr, ptr }
%struct.node_features_ops = type { ptr, ptr, ptr, ptr, ptr, ptr, ptr, ptr, ptr, ptr, ptr, ptr, ptr, ptr, ptr, ptr, ptr }
%struct.timeval = type { i64, i64 }

@g_context_lock = internal global %union.pthread_mutex_t zeroinitializer, align 8
@.str.1 = private unnamed_addr constant [29 x i8] c"%s: pthread_mutex_lock(): %m\00", align 1
@g_context_cnt = internal global i32 -1, align 4
@ops = internal global ptr null, align 8
@.str.7 = private unnamed_addr constant [31 x i8] c"%s: pthread_mutex_unlock(): %m\00", align 1
@__func__.node_features_g_boot_time = private unnamed_addr constant [26 x i8] c"node_features_g_boot_time\00", align 1

; Function Attrs: nounwind uwtable
define dso_local i32 @node_features_g_boot_time() #0 {
  %1 = alloca %struct.timeval, align 8
  %2 = alloca %struct.timeval, align 8
  %3 = alloca [20 x i8], align 16
  %4 = alloca i64, align 8
  %5 = alloca i32, align 4
  %6 = alloca i32, align 4
  %7 = alloca i32, align 4
  %8 = alloca i32, align 4
  call void @llvm.lifetime.start.p0(i64 16, ptr %1) #7
  call void @llvm.lifetime.start.p0(i64 16, ptr %2) #7
  call void @llvm.lifetime.start.p0(i64 20, ptr %3) #7
  call void @llvm.memset.p0.i64(ptr align 16 %3, i8 0, i64 20, i1 false)
  call void @llvm.lifetime.start.p0(i64 8, ptr %4) #7
  call void @llvm.lifetime.start.p0(i64 4, ptr %5) #7
  store i32 0, ptr %5, align 4
  call void @llvm.lifetime.start.p0(i64 4, ptr %6) #7
  %9 = call i32 @gettimeofday(ptr noundef %1, ptr noundef null) #7
  br label %10

10:                                               ; preds = %0
  call void @llvm.lifetime.start.p0(i64 4, ptr %7) #7
  %11 = call i32 @pthread_mutex_lock(ptr noundef @g_context_lock) #7
  store i32 %11, ptr %7, align 4
  %12 = load i32, ptr %7, align 4
  %13 = icmp ne i32 %12, 0
  br i1 %13, label %14, label %17

14:                                               ; preds = %10
  %15 = load i32, ptr %7, align 4
  %16 = call ptr @__errno_location() #8
  store i32 %15, ptr %16, align 4
  call void (ptr, ...) @fatal_abort(ptr noundef @.str.1, ptr noundef @__func__.node_features_g_boot_time) #9
  unreachable

17:                                               ; preds = %10
  call void @llvm.lifetime.end.p0(i64 4, ptr %7) #7
  br label %18

18:                                               ; preds = %17
  br label %19

19:                                               ; preds = %18
  store i32 0, ptr %6, align 4
  br label %20

20:                                               ; preds = %46, %19
  %21 = load i32, ptr %6, align 4
  %22 = load i32, ptr @g_context_cnt, align 4
  %23 = icmp slt i32 %21, %22
  br i1 %23, label %24, label %49

24:                                               ; preds = %20
  %25 = load i32, ptr %5, align 4
  %26 = load ptr, ptr @ops, align 8
  %27 = load i32, ptr %6, align 4
  %28 = sext i32 %27 to i64
  %29 = getelementptr inbounds %struct.node_features_ops, ptr %26, i64 %28
  %30 = getelementptr inbounds nuw %struct.node_features_ops, ptr %29, i32 0, i32 0
  %31 = load ptr, ptr %30, align 8
  %32 = call i32 %31()
  %33 = icmp ugt i32 %25, %32
  br i1 %33, label %34, label %36

34:                                               ; preds = %24
  %35 = load i32, ptr %5, align 4
  br label %44

36:                                               ; preds = %24
  %37 = load ptr, ptr @ops, align 8
  %38 = load i32, ptr %6, align 4
  %39 = sext i32 %38 to i64
  %40 = getelementptr inbounds %struct.node_features_ops, ptr %37, i64 %39
  %41 = getelementptr inbounds nuw %struct.node_features_ops, ptr %40, i32 0, i32 0
  %42 = load ptr, ptr %41, align 8
  %43 = call i32 %42()
  br label %44

44:                                               ; preds = %36, %34
  %45 = phi i32 [ %35, %34 ], [ %43, %36 ]
  store i32 %45, ptr %5, align 4
  br label %46

46:                                               ; preds = %44
  %47 = load i32, ptr %6, align 4
  %48 = add nsw i32 %47, 1
  store i32 %48, ptr %6, align 4
  br label %20, !llvm.loop !29

49:                                               ; preds = %20
  br label %50

50:                                               ; preds = %49
  call void @llvm.lifetime.start.p0(i64 4, ptr %8) #7
  %51 = call i32 @pthread_mutex_unlock(ptr noundef @g_context_lock) #7
  store i32 %51, ptr %8, align 4
  %52 = load i32, ptr %8, align 4
  %53 = icmp ne i32 %52, 0
  br i1 %53, label %54, label %57

54:                                               ; preds = %50
  %55 = load i32, ptr %8, align 4
  %56 = call ptr @__errno_location() #8
  store i32 %55, ptr %56, align 4
  call void (ptr, ...) @fatal_abort(ptr noundef @.str.7, ptr noundef @__func__.node_features_g_boot_time) #9
  unreachable

57:                                               ; preds = %50
  call void @llvm.lifetime.end.p0(i64 4, ptr %8) #7
  br label %58

58:                                               ; preds = %57
  br label %59

59:                                               ; preds = %58
  br label %60

60:                                               ; preds = %59
  %61 = call i32 @gettimeofday(ptr noundef %2, ptr noundef null) #7
  %62 = getelementptr inbounds [20 x i8], ptr %3, i64 0, i64 0
  call void @slurm_diff_tv_str(ptr noundef %1, ptr noundef %2, ptr noundef %62, i32 noundef 20, ptr noundef @__func__.node_features_g_boot_time, i64 noundef 0, ptr noundef %4)
  br label %63

63:                                               ; preds = %60
  br label %64

64:                                               ; preds = %63
  %65 = load i32, ptr %5, align 4
  call void @llvm.lifetime.end.p0(i64 4, ptr %6) #7
  call void @llvm.lifetime.end.p0(i64 4, ptr %5) #7
  call void @llvm.lifetime.end.p0(i64 8, ptr %4) #7
  call void @llvm.lifetime.end.p0(i64 20, ptr %3) #7
  call void @llvm.lifetime.end.p0(i64 16, ptr %2) #7
  call void @llvm.lifetime.end.p0(i64 16, ptr %1) #7
  ret i32 %65
}