; Function Attrs: nounwind uwtable
define dso_local i32 @node_features_g_boot_time() local_unnamed_addr #0 {
  %1 = alloca %struct.timeval, align 8
  %2 = alloca %struct.timeval, align 8
  %3 = alloca [20 x i8], align 16
  %4 = alloca i64, align 8
  call void @llvm.lifetime.start.p0(i64 16, ptr nonnull %1) #9
  call void @llvm.lifetime.start.p0(i64 16, ptr nonnull %2) #9
  call void @llvm.lifetime.start.p0(i64 20, ptr nonnull %3) #9
  call void @llvm.memset.p0.i64(ptr noundef nonnull align 16 dereferenceable(20) %3, i8 0, i64 20, i1 false)
  call void @llvm.lifetime.start.p0(i64 8, ptr nonnull %4) #9
  %5 = call i32 @gettimeofday(ptr noundef nonnull %1, ptr noundef null) #9
  %6 = tail call i32 @pthread_mutex_lock(ptr noundef nonnull @g_context_lock) #9
  %.not = icmp eq i32 %6, 0
  br i1 %.not, label %.preheader, label %9

.preheader:                                       ; preds = %0
  %7 = load i32, ptr @g_context_cnt, align 4
  %8 = icmp sgt i32 %7, 0
  br i1 %8, label %.lr.ph, label %._crit_edge

9:                                                ; preds = %0
  %10 = tail call ptr @__errno_location() #10
  store i32 %6, ptr %10, align 4
  tail call void (ptr, ...) @fatal_abort(ptr noundef nonnull @.str.1, ptr noundef nonnull @__func__.node_features_g_boot_time) #11
  unreachable

.lr.ph:                                           ; preds = %.preheader, %21
  %indvars.iv = phi i64 [ %indvars.iv.next, %21 ], [ 0, %.preheader ]
  %.016 = phi i32 [ %22, %21 ], [ 0, %.preheader ]
  %11 = load ptr, ptr @ops, align 8
  %12 = getelementptr inbounds nuw %struct.node_features_ops, ptr %11, i64 %indvars.iv
  %13 = load ptr, ptr %12, align 8
  %14 = tail call i32 %13() #9
  %15 = icmp ugt i32 %.016, %14
  br i1 %15, label %21, label %16

16:                                               ; preds = %.lr.ph
  %17 = load ptr, ptr @ops, align 8
  %18 = getelementptr inbounds nuw %struct.node_features_ops, ptr %17, i64 %indvars.iv
  %19 = load ptr, ptr %18, align 8
  %20 = tail call i32 %19() #9
  br label %21

21:                                               ; preds = %.lr.ph, %16
  %22 = phi i32 [ %20, %16 ], [ %.016, %.lr.ph ]
  %indvars.iv.next = add nuw nsw i64 %indvars.iv, 1
  %23 = load i32, ptr @g_context_cnt, align 4
  %24 = sext i32 %23 to i64
  %25 = icmp slt i64 %indvars.iv.next, %24
  br i1 %25, label %.lr.ph, label %._crit_edge, !llvm.loop !27

._crit_edge:                                      ; preds = %21, %.preheader
  %.0.lcssa = phi i32 [ 0, %.preheader ], [ %22, %21 ]
  %26 = tail call i32 @pthread_mutex_unlock(ptr noundef nonnull @g_context_lock) #9
  %.not14 = icmp eq i32 %26, 0
  br i1 %.not14, label %29, label %27

27:                                               ; preds = %._crit_edge
  %28 = tail call ptr @__errno_location() #10
  store i32 %26, ptr %28, align 4
  tail call void (ptr, ...) @fatal_abort(ptr noundef nonnull @.str.7, ptr noundef nonnull @__func__.node_features_g_boot_time) #11
  unreachable

29:                                               ; preds = %._crit_edge
  %30 = call i32 @gettimeofday(ptr noundef nonnull %2, ptr noundef null) #9
  call void @slurm_diff_tv_str(ptr noundef nonnull %1, ptr noundef nonnull %2, ptr noundef nonnull %3, i32 noundef 20, ptr noundef nonnull @__func__.node_features_g_boot_time, i64 noundef 0, ptr noundef nonnull %4) #9
  call void @llvm.lifetime.end.p0(i64 8, ptr nonnull %4) #9
  call void @llvm.lifetime.end.p0(i64 20, ptr nonnull %3) #9
  call void @llvm.lifetime.end.p0(i64 16, ptr nonnull %2) #9
  call void @llvm.lifetime.end.p0(i64 16, ptr nonnull %1) #9
  ret i32 %.0.lcssa
}